target datalayout = "e-m:e-p270:32:32-p271:32:32-p272:64:64-i64:64-i128:128-f80:128-n8:16:32:64-S128"
target triple = "x86_64-pc-linux-gnu"

; Function Attrs: nounwind uwtable
define dso_local ptr @bufferevent_openssl_filter_new(ptr noundef %0, ptr noundef %1, ptr noundef %2, i32 noundef %3, i32 noundef %4) #0 {
  %6 = alloca ptr, align 8
  %7 = alloca ptr, align 8
  %8 = alloca ptr, align 8
  %9 = alloca ptr, align 8
  %10 = alloca i32, align 4
  %11 = alloca i32, align 4
  %12 = alloca ptr, align 8
  %13 = alloca ptr, align 8
  %14 = alloca i32, align 4
  store ptr %0, ptr %7, align 8
  store ptr %1, ptr %8, align 8
  store ptr %2, ptr %9, align 8
  store i32 %3, ptr %10, align 4
  store i32 %4, ptr %11, align 4
  call void @llvm.lifetime.start.p0(i64 8, ptr %12) #5
  call void @llvm.lifetime.start.p0(i64 8, ptr %13) #5
  %15 = load ptr, ptr %8, align 8
  %16 = icmp ne ptr %15, null
  br i1 %16, label %18, label %17

17:                                               ; preds = %5
  br label %34

18:                                               ; preds = %5
  %19 = load ptr, ptr %8, align 8
  %20 = call ptr @BIO_new_bufferevent(ptr noundef %19)
  store ptr %20, ptr %12, align 8
  %21 = icmp ne ptr %20, null
  br i1 %21, label %23, label %22

22:                                               ; preds = %18
  br label %34

23:                                               ; preds = %18
  %24 = load ptr, ptr %9, align 8
  %25 = load ptr, ptr %12, align 8
  %26 = load ptr, ptr %12, align 8
  call void @SSL_set_bio(ptr noundef %24, ptr noundef %25, ptr noundef %26)
  %27 = load ptr, ptr %7, align 8
  %28 = load ptr, ptr %8, align 8
  %29 = load ptr, ptr %9, align 8
  %30 = load i32, ptr %10, align 4
  %31 = load i32, ptr %11, align 4
  %32 = call ptr @bufferevent_ssl_new_impl(ptr noundef %27, ptr noundef %28, i32 noundef -1, ptr noundef %29, i32 noundef %30, i32 noundef %31, ptr noundef @le_openssl_ops)
  store ptr %32, ptr %13, align 8
  %33 = load ptr, ptr %13, align 8
  store ptr %33, ptr %6, align 8
  store i32 1, ptr %14, align 4
  br label %41

34:                                               ; preds = %22, %17
  %35 = load i32, ptr %11, align 4
  %36 = and i32 %35, 1
  %37 = icmp ne i32 %36, 0
  br i1 %37, label %38, label %40

38:                                               ; preds = %34
  %39 = load ptr, ptr %9, align 8
  call void @SSL_free(ptr noundef %39)
  br label %40

40:                                               ; preds = %38, %34
  store ptr null, ptr %6, align 8
  store i32 1, ptr %14, align 4
  br label %41

41:                                               ; preds = %40, %23
  call void @llvm.lifetime.end.p0(i64 8, ptr %13) #5
  call void @llvm.lifetime.end.p0(i64 8, ptr %12) #5
  %42 = load ptr, ptr %6, align 8
  ret ptr %42
}