; Function Attrs: nounwind uwtable
define dso_local ptr @bufferevent_openssl_filter_new(ptr noundef %0, ptr noundef %1, ptr noundef %2, i32 noundef %3, i32 noundef %4) local_unnamed_addr #0 {
  %.not = icmp eq ptr %1, null
  br i1 %.not, label %10, label %6

6:                                                ; preds = %5
  %7 = tail call fastcc ptr @BIO_new_bufferevent(ptr noundef %1)
  %.not15 = icmp eq ptr %7, null
  br i1 %.not15, label %10, label %8

8:                                                ; preds = %6
  tail call void @SSL_set_bio(ptr noundef %2, ptr noundef nonnull %7, ptr noundef nonnull %7) #5
  %9 = tail call ptr @bufferevent_ssl_new_impl(ptr noundef %0, ptr noundef nonnull %1, i32 noundef -1, ptr noundef %2, i32 noundef %3, i32 noundef %4, ptr noundef nonnull @le_openssl_ops) #5
  br label %13

10:                                               ; preds = %6, %5
  %11 = and i32 %4, 1
  %.not16 = icmp eq i32 %11, 0
  br i1 %.not16, label %13, label %12

12:                                               ; preds = %10
  tail call void @SSL_free(ptr noundef %2) #5
  br label %13

13:                                               ; preds = %10, %12, %8
  %.0 = phi ptr [ %9, %8 ], [ null, %12 ], [ null, %10 ]
  ret ptr %.0
}